; Function Attrs: mustprogress nounwind uwtable
define dso_local void @_ZN4node9inspector5Agent17AsyncTaskCanceledEPv(ptr nocapture noundef nonnull readonly align 8 dereferenceable(186) %this, ptr noundef %task) local_unnamed_addr #3 align 2 {
entry:
  %client_ = getelementptr inbounds i8, ptr %this, i64 8
  %0 = load ptr, ptr %client_, align 8
  %client_.i = getelementptr inbounds i8, ptr %0, i64 24
  %1 = load ptr, ptr %client_.i, align 8
  %vtable.i = load ptr, ptr %1, align 8
  %vfn.i = getelementptr inbounds i8, ptr %vtable.i, i64 80
  %2 = load ptr, ptr %vfn.i, align 8
  tail call void %2(ptr noundef nonnull align 8 dereferenceable(8) %1, ptr noundef %task) #23
  ret void
}